target datalayout = "e-m:e-p270:32:32-p271:32:32-p272:64:64-i64:64-i128:128-f80:128-n8:16:32:64-S128"
target triple = "x86_64-pc-linux-gnu"

%struct.ScratchBuf = type { [65536 x i8], i32 }
%struct.ParseContext_ = type { %struct.TokenData, i32, %union.SourceSpan, %union.SourceSpan, ptr, %struct.Lexer }
%struct.TokenData = type { ptr, i64, %union.anon.86 }
%union.anon.86 = type { %struct.anon.89 }
%struct.anon.89 = type { %struct.Int128_, i8 }
%struct.Int128_ = type { i64, i64 }
%union.SourceSpan = type { i64 }
%struct.Lexer = type { ptr, ptr, ptr, ptr, i32, i32, ptr, ptr, ptr, %struct.TokenData, %union.SourceSpan, i32, i32 }
%struct.anon.0 = type { i16, i8, i8, i32 }
%struct.Path_ = type { %union.SourceSpan, ptr, i32 }

@scratch_buffer = external global %struct.ScratchBuf, align 4
@.str.19 = private unnamed_addr constant [33 x i8] c"A module name was expected here.\00", align 1

; Function Attrs: nounwind uwtable
define internal i32 @fnv1a(ptr noundef %0, i32 noundef %1) #0 {
  %3 = alloca ptr, align 8
  %4 = alloca i32, align 4
  %5 = alloca i32, align 4
  %6 = alloca i32, align 4
  store ptr %0, ptr %3, align 8
  store i32 %1, ptr %4, align 4
  store i32 -2128831035, ptr %5, align 4
  store i32 0, ptr %6, align 4
  br label %7

7:                                                ; preds = %21, %2
  %8 = load i32, ptr %6, align 4
  %9 = load i32, ptr %4, align 4
  %10 = icmp ult i32 %8, %9
  br i1 %10, label %11, label %24

11:                                               ; preds = %7
  %12 = load ptr, ptr %3, align 8
  %13 = load i32, ptr %6, align 4
  %14 = zext i32 %13 to i64
  %15 = getelementptr inbounds i8, ptr %12, i64 %14
  %16 = load i8, ptr %15, align 1
  %17 = sext i8 %16 to i32
  %18 = load i32, ptr %5, align 4
  %19 = xor i32 %17, %18
  %20 = mul i32 %19, 16777619
  store i32 %20, ptr %5, align 4
  br label %21

21:                                               ; preds = %11
  %22 = load i32, ptr %6, align 4
  %23 = add i32 %22, 1
  store i32 %23, ptr %6, align 4
  br label %7, !llvm.loop !14

24:                                               ; preds = %7
  %25 = load i32, ptr %5, align 4
  ret i32 %25
}

; Function Attrs: nounwind uwtable
define internal i64 @extend_span_with_token(i64 %0, i64 %1) #0 {
  %3 = alloca %union.SourceSpan, align 8
  %4 = alloca %union.SourceSpan, align 8
  %5 = alloca %union.SourceSpan, align 8
  %6 = getelementptr inbounds %union.SourceSpan, ptr %4, i32 0, i32 0
  store i64 %0, ptr %6, align 8
  %7 = getelementptr inbounds %union.SourceSpan, ptr %5, i32 0, i32 0
  store i64 %1, ptr %7, align 8
  %8 = getelementptr inbounds %struct.anon.0, ptr %4, i32 0, i32 3
  %9 = load i32, ptr %8, align 4
  %10 = getelementptr inbounds %struct.anon.0, ptr %5, i32 0, i32 3
  %11 = load i32, ptr %10, align 4
  %12 = icmp ne i32 %9, %11
  br i1 %12, label %13, label %14

13:                                               ; preds = %2
  call void @llvm.memcpy.p0.p0.i64(ptr align 8 %3, ptr align 8 %4, i64 8, i1 false)
  br label %28

14:                                               ; preds = %2
  %15 = getelementptr inbounds %struct.anon.0, ptr %5, i32 0, i32 2
  %16 = load i8, ptr %15, align 1
  %17 = zext i8 %16 to i32
  %18 = getelementptr inbounds %struct.anon.0, ptr %5, i32 0, i32 1
  %19 = load i8, ptr %18, align 2
  %20 = zext i8 %19 to i32
  %21 = add nsw i32 %17, %20
  %22 = getelementptr inbounds %struct.anon.0, ptr %4, i32 0, i32 2
  %23 = load i8, ptr %22, align 1
  %24 = zext i8 %23 to i32
  %25 = sub nsw i32 %21, %24
  %26 = trunc i32 %25 to i8
  %27 = getelementptr inbounds %struct.anon.0, ptr %4, i32 0, i32 1
  store i8 %26, ptr %27, align 2
  call void @llvm.memcpy.p0.p0.i64(ptr align 8 %3, ptr align 8 %4, i64 8, i1 false)
  br label %28

28:                                               ; preds = %14, %13
  %29 = getelementptr inbounds %union.SourceSpan, ptr %3, i32 0, i32 0
  %30 = load i64, ptr %29, align 8
  ret i64 %30
}

; Function Attrs: nounwind uwtable
define dso_local zeroext i1 @parse_path_prefix(ptr noundef %0, ptr noundef %1) #0 {
  %3 = alloca ptr, align 8
  %4 = alloca ptr, align 8
  %5 = alloca ptr, align 8
  %6 = alloca ptr, align 8
  %7 = alloca ptr, align 8
  %8 = alloca ptr, align 8
  %9 = alloca i32, align 4
  %10 = alloca ptr, align 8
  %11 = alloca i32, align 4
  %12 = alloca i1, align 1
  %13 = alloca ptr, align 8
  %14 = alloca ptr, align 8
  %15 = alloca ptr, align 8
  %16 = alloca i32, align 4
  %17 = alloca ptr, align 8
  %18 = alloca i32, align 4
  %19 = alloca %union.SourceSpan, align 8
  %20 = alloca i32, align 4
  %21 = alloca %union.SourceSpan, align 8
  store ptr %0, ptr %13, align 8
  store ptr %1, ptr %14, align 8
  %22 = load ptr, ptr %14, align 8
  store ptr null, ptr %22, align 8
  %23 = load ptr, ptr %13, align 8
  store ptr %23, ptr %8, align 8
  store i32 64, ptr %9, align 4
  %24 = load ptr, ptr %8, align 8
  %25 = getelementptr inbounds %struct.ParseContext_, ptr %24, i32 0, i32 1
  %26 = load i32, ptr %25, align 8
  %27 = load i32, ptr %9, align 4
  %28 = icmp eq i32 %26, %27
  br i1 %28, label %29, label %36

29:                                               ; preds = %2
  %30 = load ptr, ptr %13, align 8
  store ptr %30, ptr %6, align 8
  %31 = load ptr, ptr %6, align 8
  %32 = getelementptr inbounds %struct.ParseContext_, ptr %31, i32 0, i32 5
  %33 = getelementptr inbounds %struct.Lexer, ptr %32, i32 0, i32 11
  %34 = load i32, ptr %33, align 8
  %35 = icmp ne i32 %34, 58
  br i1 %35, label %36, label %37

36:                                               ; preds = %29, %2
  store i1 true, ptr %12, align 1
  br label %146

37:                                               ; preds = %29
  store ptr @scratch_buffer, ptr %15, align 8
  store i32 0, ptr %16, align 4
  %38 = call ptr @calloc_arena(i64 noundef 24)
  store ptr %38, ptr %17, align 8
  %39 = load ptr, ptr %17, align 8
  %40 = getelementptr inbounds %struct.Path_, ptr %39, i32 0, i32 0
  %41 = load ptr, ptr %13, align 8
  %42 = getelementptr inbounds %struct.ParseContext_, ptr %41, i32 0, i32 2
  call void @llvm.memcpy.p0.p0.i64(ptr align 8 %40, ptr align 8 %42, i64 8, i1 false)
  %43 = load ptr, ptr %13, align 8
  store ptr %43, ptr %3, align 8
  %44 = load ptr, ptr %3, align 8
  %45 = getelementptr inbounds %struct.TokenData, ptr %44, i32 0, i32 2
  %46 = load ptr, ptr %45, align 8
  %47 = call i64 @strlen(ptr noundef %46) #5
  %48 = trunc i64 %47 to i32
  store i32 %48, ptr %18, align 4
  %49 = load ptr, ptr %15, align 8
  %50 = load ptr, ptr %13, align 8
  store ptr %50, ptr %4, align 8
  %51 = load ptr, ptr %4, align 8
  %52 = getelementptr inbounds %struct.TokenData, ptr %51, i32 0, i32 2
  %53 = load ptr, ptr %52, align 8
  %54 = load i32, ptr %18, align 4
  %55 = zext i32 %54 to i64
  call void @llvm.memcpy.p0.p0.i64(ptr align 1 %49, ptr align 1 %53, i64 %55, i1 false)
  %56 = load i32, ptr %18, align 4
  %57 = load i32, ptr %16, align 4
  %58 = add i32 %57, %56
  store i32 %58, ptr %16, align 4
  %59 = load ptr, ptr %13, align 8
  %60 = getelementptr inbounds %struct.ParseContext_, ptr %59, i32 0, i32 2
  call void @llvm.memcpy.p0.p0.i64(ptr align 8 %19, ptr align 8 %60, i64 8, i1 false)
  %61 = load ptr, ptr %13, align 8
  call void @advance(ptr noundef %61)
  %62 = load ptr, ptr %13, align 8
  call void @advance(ptr noundef %62)
  br label %63

63:                                               ; preds = %79, %37
  %64 = load ptr, ptr %13, align 8
  store ptr %64, ptr %10, align 8
  store i32 64, ptr %11, align 4
  %65 = load ptr, ptr %10, align 8
  %66 = getelementptr inbounds %struct.ParseContext_, ptr %65, i32 0, i32 1
  %67 = load i32, ptr %66, align 8
  %68 = load i32, ptr %11, align 4
  %69 = icmp eq i32 %67, %68
  br i1 %69, label %70, label %77

70:                                               ; preds = %63
  %71 = load ptr, ptr %13, align 8
  store ptr %71, ptr %7, align 8
  %72 = load ptr, ptr %7, align 8
  %73 = getelementptr inbounds %struct.ParseContext_, ptr %72, i32 0, i32 5
  %74 = getelementptr inbounds %struct.Lexer, ptr %73, i32 0, i32 11
  %75 = load i32, ptr %74, align 8
  %76 = icmp eq i32 %75, 58
  br label %77

77:                                               ; preds = %70, %63
  %78 = phi i1 [ false, %63 ], [ %76, %70 ]
  br i1 %78, label %79, label %112

79:                                               ; preds = %77
  %80 = load ptr, ptr %13, align 8
  %81 = getelementptr inbounds %struct.ParseContext_, ptr %80, i32 0, i32 2
  call void @llvm.memcpy.p0.p0.i64(ptr align 8 %19, ptr align 8 %81, i64 8, i1 false)
  %82 = load ptr, ptr %15, align 8
  %83 = load i32, ptr %16, align 4
  %84 = add i32 %83, 1
  store i32 %84, ptr %16, align 4
  %85 = zext i32 %83 to i64
  %86 = getelementptr inbounds i8, ptr %82, i64 %85
  store i8 58, ptr %86, align 1
  %87 = load ptr, ptr %15, align 8
  %88 = load i32, ptr %16, align 4
  %89 = add i32 %88, 1
  store i32 %89, ptr %16, align 4
  %90 = zext i32 %88 to i64
  %91 = getelementptr inbounds i8, ptr %87, i64 %90
  store i8 58, ptr %91, align 1
  %92 = load ptr, ptr %13, align 8
  %93 = getelementptr inbounds %struct.ParseContext_, ptr %92, i32 0, i32 0
  %94 = getelementptr inbounds %struct.TokenData, ptr %93, i32 0, i32 1
  %95 = load i64, ptr %94, align 8
  %96 = trunc i64 %95 to i32
  store i32 %96, ptr %18, align 4
  %97 = load ptr, ptr %15, align 8
  %98 = load i32, ptr %16, align 4
  %99 = zext i32 %98 to i64
  %100 = getelementptr inbounds i8, ptr %97, i64 %99
  %101 = load ptr, ptr %13, align 8
  store ptr %101, ptr %5, align 8
  %102 = load ptr, ptr %5, align 8
  %103 = getelementptr inbounds %struct.TokenData, ptr %102, i32 0, i32 2
  %104 = load ptr, ptr %103, align 8
  %105 = load i32, ptr %18, align 4
  %106 = zext i32 %105 to i64
  call void @llvm.memcpy.p0.p0.i64(ptr align 1 %100, ptr align 1 %104, i64 %106, i1 false)
  %107 = load i32, ptr %18, align 4
  %108 = load i32, ptr %16, align 4
  %109 = add i32 %108, %107
  store i32 %109, ptr %16, align 4
  %110 = load ptr, ptr %13, align 8
  call void @advance(ptr noundef %110)
  %111 = load ptr, ptr %13, align 8
  call void @advance(ptr noundef %111)
  br label %63, !llvm.loop !13

112:                                              ; preds = %77
  store i32 64, ptr %20, align 4
  %113 = load ptr, ptr %17, align 8
  %114 = getelementptr inbounds %struct.Path_, ptr %113, i32 0, i32 0
  %115 = load ptr, ptr %17, align 8
  %116 = getelementptr inbounds %struct.Path_, ptr %115, i32 0, i32 0
  %117 = getelementptr inbounds %union.SourceSpan, ptr %116, i32 0, i32 0
  %118 = load i64, ptr %117, align 8
  %119 = getelementptr inbounds %union.SourceSpan, ptr %19, i32 0, i32 0
  %120 = load i64, ptr %119, align 8
  %121 = call i64 @extend_span_with_token(i64 %118, i64 %120)
  %122 = getelementptr inbounds %union.SourceSpan, ptr %21, i32 0, i32 0
  store i64 %121, ptr %122, align 8
  call void @llvm.memcpy.p0.p0.i64(ptr align 8 %114, ptr align 8 %21, i64 8, i1 false)
  %123 = load ptr, ptr %15, align 8
  %124 = load i32, ptr %16, align 4
  %125 = load ptr, ptr %15, align 8
  %126 = load i32, ptr %16, align 4
  %127 = call i32 @fnv1a(ptr noundef %125, i32 noundef %126)
  %128 = call ptr @symtab_add(ptr noundef %123, i32 noundef %124, i32 noundef %127, ptr noundef %20)
  %129 = load ptr, ptr %17, align 8
  %130 = getelementptr inbounds %struct.Path_, ptr %129, i32 0, i32 1
  store ptr %128, ptr %130, align 8
  %131 = load i32, ptr %20, align 4
  %132 = icmp ne i32 %131, 64
  br i1 %132, label %133, label %140

133:                                              ; preds = %112
  br label %134

134:                                              ; preds = %133
  %135 = load ptr, ptr %17, align 8
  %136 = getelementptr inbounds %struct.Path_, ptr %135, i32 0, i32 0
  %137 = getelementptr inbounds %union.SourceSpan, ptr %136, i32 0, i32 0
  %138 = load i64, ptr %137, align 8
  call void (i64, ptr, ...) @sema_error_at(i64 %138, ptr noundef @.str.19)
  store i1 false, ptr %12, align 1
  br label %146

139:                                              ; No predecessors!
  br label %140

140:                                              ; preds = %139, %112
  %141 = load i32, ptr %16, align 4
  %142 = load ptr, ptr %17, align 8
  %143 = getelementptr inbounds %struct.Path_, ptr %142, i32 0, i32 2
  store i32 %141, ptr %143, align 8
  %144 = load ptr, ptr %17, align 8
  %145 = load ptr, ptr %14, align 8
  store ptr %144, ptr %145, align 8
  store i1 true, ptr %12, align 1
  br label %146

146:                                              ; preds = %140, %134, %36
  %147 = load i1, ptr %12, align 1
  ret i1 %147
}