; Function Attrs: nounwind uwtable
define dso_local noundef zeroext i1 @parse_path_prefix(ptr noundef %0, ptr nocapture noundef writeonly %1) local_unnamed_addr #0 {
  %3 = alloca i32, align 4
  store ptr null, ptr %1, align 8
  %4 = getelementptr inbounds i8, ptr %0, i64 40
  %5 = load i32, ptr %4, align 8
  %6 = icmp eq i32 %5, 64
  br i1 %6, label %7, label %65

7:                                                ; preds = %2
  %8 = getelementptr inbounds i8, ptr %0, i64 184
  %9 = load i32, ptr %8, align 8
  %.not = icmp eq i32 %9, 58
  br i1 %.not, label %10, label %65

10:                                               ; preds = %7
  %11 = tail call ptr @calloc_arena(i64 noundef 24) #8
  %12 = getelementptr inbounds i8, ptr %0, i64 48
  %13 = load i64, ptr %12, align 8
  store i64 %13, ptr %11, align 8
  %14 = getelementptr inbounds i8, ptr %0, i64 16
  %15 = load ptr, ptr %14, align 8
  %16 = tail call i64 @strlen(ptr noundef nonnull dereferenceable(1) %15) #9
  %17 = trunc i64 %16 to i32
  %18 = and i64 %16, 4294967295
  tail call void @llvm.memcpy.p0.p0.i64(ptr nonnull align 4 @scratch_buffer, ptr align 1 %15, i64 %18, i1 false)
  %.sroa.01.0.copyload = load i64, ptr %12, align 8
  tail call void @advance(ptr noundef nonnull %0) #8
  tail call void @advance(ptr noundef nonnull %0) #8
  %19 = load i32, ptr %4, align 8
  %20 = icmp eq i32 %19, 64
  br i1 %20, label %.lr.ph, label %.critedge

.lr.ph:                                           ; preds = %10
  %21 = getelementptr inbounds i8, ptr %0, i64 8
  %22 = load i32, ptr %8, align 8
  %23 = icmp eq i32 %22, 58
  br i1 %23, label %.lr.ph63, label %.critedge

24:                                               ; preds = %.lr.ph63
  %25 = load i32, ptr %8, align 8
  %26 = icmp eq i32 %25, 58
  br i1 %26, label %.lr.ph63, label %.critedge, !llvm.loop !12

.lr.ph63:                                         ; preds = %.lr.ph, %24
  %.0535662 = phi i32 [ %39, %24 ], [ %17, %.lr.ph ]
  %.sroa.01.0.copyload2 = load i64, ptr %12, align 8
  %27 = add i32 %.0535662, 1
  %28 = zext i32 %.0535662 to i64
  %29 = getelementptr inbounds i8, ptr @scratch_buffer, i64 %28
  store i8 58, ptr %29, align 1
  %30 = add i32 %.0535662, 2
  %31 = zext i32 %27 to i64
  %32 = getelementptr inbounds i8, ptr @scratch_buffer, i64 %31
  store i8 58, ptr %32, align 1
  %33 = load i64, ptr %21, align 8
  %34 = trunc i64 %33 to i32
  %35 = zext i32 %30 to i64
  %36 = getelementptr inbounds i8, ptr @scratch_buffer, i64 %35
  %37 = load ptr, ptr %14, align 8
  %38 = and i64 %33, 4294967295
  tail call void @llvm.memcpy.p0.p0.i64(ptr nonnull align 1 %36, ptr align 1 %37, i64 %38, i1 false)
  %39 = add i32 %30, %34
  tail call void @advance(ptr noundef nonnull %0) #8
  tail call void @advance(ptr noundef nonnull %0) #8
  %40 = load i32, ptr %4, align 8
  %41 = icmp eq i32 %40, 64
  br i1 %41, label %24, label %.critedge, !llvm.loop !12

.critedge:                                        ; preds = %.lr.ph63, %24, %.lr.ph, %10
  %.053.lcssa = phi i32 [ %17, %10 ], [ %17, %.lr.ph ], [ %39, %24 ], [ %39, %.lr.ph63 ]
  %.sroa.01.0.lcssa = phi i64 [ %.sroa.01.0.copyload, %10 ], [ %.sroa.01.0.copyload, %.lr.ph ], [ %.sroa.01.0.copyload2, %24 ], [ %.sroa.01.0.copyload2, %.lr.ph63 ]
  store i32 64, ptr %3, align 4
  %42 = load i64, ptr %11, align 8
  %.not.unshifted.i = xor i64 %42, %.sroa.01.0.lcssa
  %.not.i = icmp ult i64 %.not.unshifted.i, 4294967296
  br i1 %.not.i, label %44, label %43

43:                                               ; preds = %.critedge
  %.sroa.33.0.extract.shift.i = lshr i64 %42, 16
  br label %extend_span_with_token.exit

44:                                               ; preds = %.critedge
  %.sroa.4.0.extract.shift.i = lshr i64 %42, 24
  %45 = trunc i64 %.sroa.01.0.lcssa to i32
  %46 = lshr i32 %45, 24
  %47 = lshr i32 %45, 16
  %48 = trunc i64 %.sroa.4.0.extract.shift.i to i32
  %49 = add nuw nsw i32 %46, %47
  %50 = sub i32 %49, %48
  %51 = zext i32 %50 to i64
  br label %extend_span_with_token.exit

extend_span_with_token.exit:                      ; preds = %43, %44
  %.sroa.311.0.i = phi i64 [ %.sroa.33.0.extract.shift.i, %43 ], [ %51, %44 ]
  %.sroa.311.0.insert.ext.i = shl nuw i64 %.sroa.311.0.i, 16
  %.sroa.311.0.insert.shift.i = and i64 %.sroa.311.0.insert.ext.i, 16711680
  %52 = and i64 %42, -16711681
  %.sroa.010.0.insert.insert.i = or disjoint i64 %.sroa.311.0.insert.shift.i, %52
  store i64 %.sroa.010.0.insert.insert.i, ptr %11, align 8
  %.not.i55 = icmp eq i32 %.053.lcssa, 0
  br i1 %.not.i55, label %fnv1a.exit, label %.lr.ph.preheader.i

.lr.ph.preheader.i:                               ; preds = %extend_span_with_token.exit
  %wide.trip.count.i = zext i32 %.053.lcssa to i64
  br label %.lr.ph.i

.lr.ph.i:                                         ; preds = %.lr.ph.i, %.lr.ph.preheader.i
  %indvars.iv.i = phi i64 [ 0, %.lr.ph.preheader.i ], [ %indvars.iv.next.i, %.lr.ph.i ]
  %.061.i = phi i32 [ -2128831035, %.lr.ph.preheader.i ], [ %57, %.lr.ph.i ]
  %53 = getelementptr inbounds i8, ptr @scratch_buffer, i64 %indvars.iv.i
  %54 = load i8, ptr %53, align 1
  %55 = sext i8 %54 to i32
  %56 = xor i32 %.061.i, %55
  %57 = mul i32 %56, 16777619
  %indvars.iv.next.i = add nuw nsw i64 %indvars.iv.i, 1
  %exitcond.not.i = icmp eq i64 %indvars.iv.next.i, %wide.trip.count.i
  br i1 %exitcond.not.i, label %fnv1a.exit, label %.lr.ph.i, !llvm.loop !13

fnv1a.exit:                                       ; preds = %.lr.ph.i, %extend_span_with_token.exit
  %.06.lcssa.i = phi i32 [ -2128831035, %extend_span_with_token.exit ], [ %57, %.lr.ph.i ]
  %58 = call ptr @symtab_add(ptr noundef nonnull @scratch_buffer, i32 noundef %.053.lcssa, i32 noundef %.06.lcssa.i, ptr noundef nonnull %3) #8
  %59 = getelementptr inbounds i8, ptr %11, i64 8
  store ptr %58, ptr %59, align 8
  %60 = load i32, ptr %3, align 4
  %.not54 = icmp eq i32 %60, 64
  br i1 %.not54, label %63, label %61

61:                                               ; preds = %fnv1a.exit
  %62 = load i64, ptr %11, align 8
  call void (i64, ptr, ...) @sema_error_at(i64 %62, ptr noundef nonnull @.str.19) #8
  br label %65

63:                                               ; preds = %fnv1a.exit
  %64 = getelementptr inbounds i8, ptr %11, i64 16
  store i32 %.053.lcssa, ptr %64, align 8
  store ptr %11, ptr %1, align 8
  br label %65

65:                                               ; preds = %2, %7, %63, %61
  %.0 = phi i1 [ false, %61 ], [ true, %63 ], [ true, %7 ], [ true, %2 ]
  ret i1 %.0
}